target datalayout = "e-m:e-p270:32:32-p271:32:32-p272:64:64-i64:64-i128:128-f80:128-n8:16:32:64-S128"
target triple = "x86_64-pc-linux-gnu"

%"class.llvm::StringRef" = type { ptr, i64 }

@.str.32 = private unnamed_addr constant [8 x i8] c"generic\00", align 1

; Function Attrs: mustprogress nounwind uwtable
define linkonce_odr hidden noundef i64 @_ZNSt11char_traitsIcE6lengthEPKc(ptr noundef %0) #0 comdat align 2 {
  %2 = alloca ptr, align 8
  store ptr %0, ptr %2, align 8
  %3 = load ptr, ptr %2, align 8
  %4 = call i64 @strlen(ptr noundef %3) #5
  ret i64 %4
}

; Function Attrs: mustprogress nounwind uwtable
define linkonce_odr hidden void @_ZN4llvm9StringRefC2EPKc(ptr noundef nonnull align 8 dereferenceable(16) %0, ptr noundef %1) unnamed_addr #0 comdat align 2 {
  %3 = alloca ptr, align 8
  %4 = alloca ptr, align 8
  store ptr %0, ptr %3, align 8
  store ptr %1, ptr %4, align 8
  %5 = load ptr, ptr %3, align 8
  %6 = getelementptr inbounds nuw %"class.llvm::StringRef", ptr %5, i32 0, i32 0
  %7 = load ptr, ptr %4, align 8
  store ptr %7, ptr %6, align 8
  %8 = getelementptr inbounds nuw %"class.llvm::StringRef", ptr %5, i32 0, i32 1
  %9 = load ptr, ptr %4, align 8
  %10 = icmp ne ptr %9, null
  br i1 %10, label %11, label %14

11:                                               ; preds = %2
  %12 = load ptr, ptr %4, align 8
  %13 = call noundef i64 @_ZNSt11char_traitsIcE6lengthEPKc(ptr noundef %12)
  br label %15

14:                                               ; preds = %2
  br label %15

15:                                               ; preds = %14, %11
  %16 = phi i64 [ %13, %11 ], [ 0, %14 ]
  store i64 %16, ptr %8, align 8
  ret void
}

; Function Attrs: mustprogress nounwind uwtable
define linkonce_odr hidden noundef zeroext i1 @_ZNK4llvm9StringRef5emptyEv(ptr noundef nonnull align 8 dereferenceable(16) %0) #0 comdat align 2 {
  %2 = alloca ptr, align 8
  store ptr %0, ptr %2, align 8
  %3 = load ptr, ptr %2, align 8
  %4 = getelementptr inbounds nuw %"class.llvm::StringRef", ptr %3, i32 0, i32 1
  %5 = load i64, ptr %4, align 8
  %6 = icmp eq i64 %5, 0
  ret i1 %6
}

; Function Attrs: mustprogress nounwind uwtable
define dso_local noundef nonnull align 8 dereferenceable(409552) ptr @_ZN4llvm16AArch64Subtarget31initializeSubtargetDependenciesENS_9StringRefES1_S1_b(ptr noundef nonnull align 8 dereferenceable(409552) %0, ptr %1, i64 %2, ptr %3, i64 %4, ptr noundef byval(%"class.llvm::StringRef") align 8 %5, i1 noundef zeroext %6) #0 align 2 {
  %8 = alloca %"class.llvm::StringRef", align 8
  %9 = alloca %"class.llvm::StringRef", align 8
  %10 = alloca ptr, align 8
  %11 = alloca i8, align 1
  %12 = alloca %"class.llvm::StringRef", align 8
  %13 = alloca %"class.llvm::StringRef", align 8
  %14 = alloca %"class.llvm::StringRef", align 8
  %15 = alloca %"class.llvm::StringRef", align 8
  %16 = getelementptr inbounds nuw { ptr, i64 }, ptr %8, i32 0, i32 0
  store ptr %1, ptr %16, align 8
  %17 = getelementptr inbounds nuw { ptr, i64 }, ptr %8, i32 0, i32 1
  store i64 %2, ptr %17, align 8
  %18 = getelementptr inbounds nuw { ptr, i64 }, ptr %9, i32 0, i32 0
  store ptr %3, ptr %18, align 8
  %19 = getelementptr inbounds nuw { ptr, i64 }, ptr %9, i32 0, i32 1
  store i64 %4, ptr %19, align 8
  store ptr %0, ptr %10, align 8
  %20 = zext i1 %6 to i8
  store i8 %20, ptr %11, align 1
  %21 = load ptr, ptr %10, align 8
  %22 = call noundef zeroext i1 @_ZNK4llvm9StringRef5emptyEv(ptr noundef nonnull align 8 dereferenceable(16) %9)
  br i1 %22, label %23, label %24

23:                                               ; preds = %7
  call void @_ZN4llvm9StringRefC2EPKc(ptr noundef nonnull align 8 dereferenceable(16) %12, ptr noundef @.str.32)
  call void @llvm.memcpy.p0.p0.i64(ptr align 8 %9, ptr align 8 %12, i64 16, i1 false)
  br label %24

24:                                               ; preds = %23, %7
  %25 = call noundef zeroext i1 @_ZNK4llvm9StringRef5emptyEv(ptr noundef nonnull align 8 dereferenceable(16) %5)
  br i1 %25, label %26, label %27

26:                                               ; preds = %24
  call void @llvm.memcpy.p0.p0.i64(ptr align 8 %5, ptr align 8 %9, i64 16, i1 false)
  br label %27

27:                                               ; preds = %26, %24
  call void @llvm.memcpy.p0.p0.i64(ptr align 8 %13, ptr align 8 %9, i64 16, i1 false)
  call void @llvm.memcpy.p0.p0.i64(ptr align 8 %14, ptr align 8 %5, i64 16, i1 false)
  call void @llvm.memcpy.p0.p0.i64(ptr align 8 %15, ptr align 8 %8, i64 16, i1 false)
  %28 = getelementptr inbounds nuw { ptr, i64 }, ptr %13, i32 0, i32 0
  %29 = load ptr, ptr %28, align 8
  %30 = getelementptr inbounds nuw { ptr, i64 }, ptr %13, i32 0, i32 1
  %31 = load i64, ptr %30, align 8
  %32 = getelementptr inbounds nuw { ptr, i64 }, ptr %14, i32 0, i32 0
  %33 = load ptr, ptr %32, align 8
  %34 = getelementptr inbounds nuw { ptr, i64 }, ptr %14, i32 0, i32 1
  %35 = load i64, ptr %34, align 8
  call void @_ZN4llvm16AArch64Subtarget22ParseSubtargetFeaturesENS_9StringRefES1_S1_(ptr noundef nonnull align 8 dereferenceable(409552) %21, ptr %29, i64 %31, ptr %33, i64 %35, ptr noundef byval(%"class.llvm::StringRef") align 8 %15)
  %36 = load i8, ptr %11, align 1
  %37 = trunc i8 %36 to i1
  call void @_ZN4llvm16AArch64Subtarget20initializePropertiesEb(ptr noundef nonnull align 8 dereferenceable(409552) %21, i1 noundef zeroext %37)
  ret ptr %21
}