; Function Attrs: mustprogress nounwind uwtable
define dso_local noundef nonnull align 8 dereferenceable(409552) ptr @_ZN4llvm16AArch64Subtarget31initializeSubtargetDependenciesENS_9StringRefES1_S1_b(ptr noundef nonnull returned align 8 dereferenceable(409552) %0, ptr %1, i64 %2, ptr %3, i64 %4, ptr nocapture noundef readonly byval(%"class.llvm::StringRef") align 8 %5, i1 noundef zeroext %6) local_unnamed_addr #0 align 2 {
  %8 = alloca %"class.llvm::StringRef", align 8
  %9 = icmp eq i64 %4, 0
  %spec.select = select i1 %9, ptr @.str.32, ptr %3
  %spec.select10 = select i1 %9, i64 7, i64 %4
  %10 = getelementptr inbounds nuw i8, ptr %5, i64 8
  %11 = load i64, ptr %10, align 8
  %12 = icmp eq i64 %11, 0
  %.sroa.0.0.copyload.pre = load ptr, ptr %5, align 8
  %.sroa.2.0.copyload = select i1 %12, i64 %spec.select10, i64 %11
  %.sroa.0.0.copyload = select i1 %12, ptr %spec.select, ptr %.sroa.0.0.copyload.pre
  store ptr %1, ptr %8, align 8
  %.sroa.24.0..sroa_idx = getelementptr inbounds i8, ptr %8, i64 8
  store i64 %2, ptr %.sroa.24.0..sroa_idx, align 8
  tail call void @_ZN4llvm16AArch64Subtarget22ParseSubtargetFeaturesENS_9StringRefES1_S1_(ptr noundef nonnull align 8 dereferenceable(409552) %0, ptr %spec.select, i64 %spec.select10, ptr %.sroa.0.0.copyload, i64 %.sroa.2.0.copyload, ptr noundef nonnull byval(%"class.llvm::StringRef") align 8 %8)
  tail call void @_ZN4llvm16AArch64Subtarget20initializePropertiesEb(ptr noundef nonnull align 8 dereferenceable(409552) %0, i1 noundef zeroext %6)
  ret ptr %0
}